; Function Attrs: mustprogress nofree norecurse nounwind memory(argmem: readwrite, inaccessiblemem: readwrite) uwtable
define hidden void @_ZN15G1CollectedHeap11gc_prologueEb(ptr noundef nonnull align 8 dereferenceable(1488) %0, i1 noundef zeroext %1) local_unnamed_addr #4 align 2 {
  %3 = getelementptr inbounds i8, ptr %0, i64 72
  %4 = load i32, ptr %3, align 8
  %5 = add i32 %4, 1
  store i32 %5, ptr %3, align 8
  br i1 %1, label %_ZN13CollectedHeap27increment_total_collectionsEb.exit.thread, label %_ZN13CollectedHeap27increment_total_collectionsEb.exit

_ZN13CollectedHeap27increment_total_collectionsEb.exit.thread: ; preds = %2
  %6 = getelementptr inbounds i8, ptr %0, i64 76
  %7 = load i32, ptr %6, align 4
  %8 = add i32 %7, 1
  store i32 %8, ptr %6, align 4
  br label %12

_ZN13CollectedHeap27increment_total_collectionsEb.exit: ; preds = %2
  %9 = getelementptr inbounds i8, ptr %0, i64 970
  %10 = load volatile i8, ptr %9, align 2
  %11 = trunc i8 %10 to i1
  br i1 %11, label %12, label %16

12:                                               ; preds = %_ZN13CollectedHeap27increment_total_collectionsEb.exit.thread, %_ZN13CollectedHeap27increment_total_collectionsEb.exit
  %13 = getelementptr inbounds i8, ptr %0, i64 976
  %14 = load volatile i32, ptr %13, align 8
  %15 = add i32 %14, 1
  store volatile i32 %15, ptr %13, align 8
  br label %16

16:                                               ; preds = %12, %_ZN13CollectedHeap27increment_total_collectionsEb.exit
  ret void
}